; Function Attrs: nounwind uwtable
define nonnull ptr @l_Lean_Omega_IntList_leading___lambda__1___boxed(ptr noundef %0) #0 {
  %2 = load ptr, ptr @l_Lean_Omega_IntList_get___closed__1, align 8, !tbaa !4
  %3 = ptrtoint ptr %0 to i64
  %4 = ptrtoint ptr %2 to i64
  %5 = and i64 %3, 1
  %6 = and i64 %5, %4
  %or.cond.not.i.i.i = icmp eq i64 %6, 0
  br i1 %or.cond.not.i.i.i, label %.critedge.i.i.i, label %7, !prof !13

7:                                                ; preds = %1
  %8 = icmp eq ptr %0, %2
  br label %l_Lean_Omega_IntList_leading___lambda__1.exit

.critedge.i.i.i:                                  ; preds = %1
  %9 = tail call zeroext i1 @lean_int_big_eq(ptr noundef %0, ptr noundef %2) #3
  br label %l_Lean_Omega_IntList_leading___lambda__1.exit

l_Lean_Omega_IntList_leading___lambda__1.exit:    ; preds = %7, %.critedge.i.i.i
  %.0.i.i.i = phi i1 [ %8, %7 ], [ %9, %.critedge.i.i.i ]
  %.not = icmp eq i64 %5, 0
  br i1 %.not, label %10, label %lean_dec.exit

10:                                               ; preds = %l_Lean_Omega_IntList_leading___lambda__1.exit
  %11 = load i32, ptr %0, align 4, !tbaa !8
  %12 = icmp sgt i32 %11, 1
  br i1 %12, label %13, label %15, !prof !11

13:                                               ; preds = %10
  %14 = add nsw i32 %11, -1
  store i32 %14, ptr %0, align 4, !tbaa !8
  br label %lean_dec.exit

15:                                               ; preds = %10
  %.not.i = icmp eq i32 %11, 0
  br i1 %.not.i, label %lean_dec.exit, label %16

16:                                               ; preds = %15
  tail call void @lean_dec_ref_cold(ptr noundef nonnull %0) #3
  br label %lean_dec.exit

lean_dec.exit:                                    ; preds = %16, %15, %13, %l_Lean_Omega_IntList_leading___lambda__1.exit
  %17 = select i1 %.0.i.i.i, ptr inttoptr (i64 1 to ptr), ptr inttoptr (i64 3 to ptr)
  ret ptr %17
}